target datalayout = "e-m:e-p270:32:32-p271:32:32-p272:64:64-i64:64-i128:128-f80:128-n8:16:32:64-S128"
target triple = "x86_64-pc-linux-gnu"

%struct._object = type { i64, ptr }
%struct.PyVarObject = type { %struct._object, i64 }
%"struct.nanobind::detail::nb_bound_method" = type { %struct._object, ptr, ptr, ptr }
%"struct.nanobind::detail::nb_func" = type { %struct.PyVarObject, ptr, i32, i8, i8 }

; Function Attrs: inlinehint mustprogress nounwind uwtable
define internal noundef i64 @_ZL18PyVectorcall_NARGSm(i64 noundef %0) #12 {
  %2 = alloca i64, align 8
  store i64 %0, ptr %2, align 8
  %3 = load i64, ptr %2, align 8
  %4 = and i64 %3, 9223372036854775807
  ret i64 %4
}

; Function Attrs: mustprogress nounwind uwtable
define internal noundef ptr @_ZN8nanobind6detailL26nb_bound_method_vectorcallEP7_objectPKS2_mS2_(ptr noundef %0, ptr noundef %1, i64 noundef %2, ptr noundef %3) #8 personality ptr @__gxx_personality_v0 {
  %5 = alloca ptr, align 8
  %6 = alloca ptr, align 8
  %7 = alloca ptr, align 8
  %8 = alloca i64, align 8
  %9 = alloca ptr, align 8
  %10 = alloca ptr, align 8
  %11 = alloca i64, align 8
  %12 = alloca i64, align 8
  %13 = alloca ptr, align 8
  %14 = alloca [5 x ptr], align 16
  %15 = alloca ptr, align 8
  %16 = alloca ptr, align 8
  %17 = alloca i8, align 1
  %18 = alloca i64, align 8
  %19 = alloca i32, align 4
  store ptr %0, ptr %6, align 8
  store ptr %1, ptr %7, align 8
  store i64 %2, ptr %8, align 8
  store ptr %3, ptr %9, align 8
  call void @llvm.lifetime.start.p0(i64 8, ptr %10) #22
  %20 = load ptr, ptr %6, align 8
  store ptr %20, ptr %10, align 8
  call void @llvm.lifetime.start.p0(i64 8, ptr %11) #22
  %21 = load i64, ptr %8, align 8
  %22 = call noundef i64 @_ZL18PyVectorcall_NARGSm(i64 noundef %21)
  store i64 %22, ptr %11, align 8
  call void @llvm.lifetime.start.p0(i64 8, ptr %12) #22
  store i64 5, ptr %12, align 8
  call void @llvm.lifetime.start.p0(i64 8, ptr %13) #22
  call void @llvm.lifetime.start.p0(i64 40, ptr %14) #22
  call void @llvm.lifetime.start.p0(i64 8, ptr %15) #22
  store ptr null, ptr %15, align 8
  call void @llvm.lifetime.start.p0(i64 8, ptr %16) #22
  call void @llvm.lifetime.start.p0(i64 1, ptr %17) #22
  store i8 0, ptr %17, align 1
  %23 = load i64, ptr %8, align 8
  %24 = and i64 %23, -9223372036854775808
  %25 = icmp ne i64 %24, 0
  %26 = zext i1 %25 to i64
  %27 = call i64 @llvm.expect.i64(i64 %26, i64 1)
  %28 = icmp ne i64 %27, 0
  br i1 %28, label %29, label %35

29:                                               ; preds = %4
  %30 = load ptr, ptr %7, align 8
  %31 = getelementptr inbounds ptr, ptr %30, i64 -1
  store ptr %31, ptr %13, align 8
  %32 = load ptr, ptr %13, align 8
  %33 = getelementptr inbounds ptr, ptr %32, i64 0
  %34 = load ptr, ptr %33, align 8
  store ptr %34, ptr %15, align 8
  br label %72

35:                                               ; preds = %4
  call void @llvm.lifetime.start.p0(i64 8, ptr %18) #22
  %36 = load i64, ptr %11, align 8
  %37 = add i64 %36, 1
  store i64 %37, ptr %18, align 8
  %38 = load ptr, ptr %9, align 8
  %39 = icmp ne ptr %38, null
  br i1 %39, label %40, label %46

40:                                               ; preds = %35
  %41 = load ptr, ptr %9, align 8
  %42 = getelementptr inbounds nuw %struct.PyVarObject, ptr %41, i32 0, i32 1
  %43 = load i64, ptr %42, align 8
  %44 = load i64, ptr %18, align 8
  %45 = add i64 %44, %43
  store i64 %45, ptr %18, align 8
  br label %46

46:                                               ; preds = %40, %35
  %47 = load i64, ptr %18, align 8
  %48 = icmp ult i64 %47, 5
  br i1 %48, label %49, label %51

49:                                               ; preds = %46
  %50 = getelementptr inbounds [5 x ptr], ptr %14, i64 0, i64 0
  store ptr %50, ptr %13, align 8
  br label %62

51:                                               ; preds = %46
  %52 = load i64, ptr %18, align 8
  %53 = mul i64 %52, 8
  %54 = invoke ptr @PyMem_Malloc(i64 noundef %53)
          to label %55 unwind label %107

55:                                               ; preds = %51
  store ptr %54, ptr %13, align 8
  %56 = load ptr, ptr %13, align 8
  %57 = icmp ne ptr %56, null
  br i1 %57, label %61, label %58

58:                                               ; preds = %55
  %59 = invoke ptr @PyErr_NoMemory()
          to label %60 unwind label %107

60:                                               ; preds = %58
  store ptr %59, ptr %5, align 8
  store i32 1, ptr %19, align 4
  br label %69

61:                                               ; preds = %55
  store i8 1, ptr %17, align 1
  br label %62

62:                                               ; preds = %61, %49
  %63 = load ptr, ptr %13, align 8
  %64 = getelementptr inbounds ptr, ptr %63, i64 1
  %65 = load ptr, ptr %7, align 8
  %66 = load i64, ptr %18, align 8
  %67 = sub i64 %66, 1
  %68 = mul i64 8, %67
  call void @llvm.memcpy.p0.p0.i64(ptr align 8 %64, ptr align 8 %65, i64 %68, i1 false)
  store i32 0, ptr %19, align 4
  br label %69

69:                                               ; preds = %62, %60
  call void @llvm.lifetime.end.p0(i64 8, ptr %18) #22
  %70 = load i32, ptr %19, align 4
  switch i32 %70, label %105 [
    i32 0, label %71
  ]

71:                                               ; preds = %69
  br label %72

72:                                               ; preds = %71, %29
  %73 = load ptr, ptr %10, align 8
  %74 = getelementptr inbounds nuw %"struct.nanobind::detail::nb_bound_method", ptr %73, i32 0, i32 3
  %75 = load ptr, ptr %74, align 8
  %76 = load ptr, ptr %13, align 8
  %77 = getelementptr inbounds ptr, ptr %76, i64 0
  store ptr %75, ptr %77, align 8
  %78 = load ptr, ptr %10, align 8
  %79 = getelementptr inbounds nuw %"struct.nanobind::detail::nb_bound_method", ptr %78, i32 0, i32 2
  %80 = load ptr, ptr %79, align 8
  %81 = getelementptr inbounds nuw %"struct.nanobind::detail::nb_func", ptr %80, i32 0, i32 1
  %82 = load ptr, ptr %81, align 8
  %83 = load ptr, ptr %10, align 8
  %84 = getelementptr inbounds nuw %"struct.nanobind::detail::nb_bound_method", ptr %83, i32 0, i32 2
  %85 = load ptr, ptr %84, align 8
  %86 = load ptr, ptr %13, align 8
  %87 = load i64, ptr %11, align 8
  %88 = add i64 %87, 1
  %89 = load ptr, ptr %9, align 8
  %90 = invoke noundef ptr %82(ptr noundef %85, ptr noundef %86, i64 noundef %88, ptr noundef %89)
          to label %91 unwind label %107

91:                                               ; preds = %72
  store ptr %90, ptr %16, align 8
  %92 = load ptr, ptr %15, align 8
  %93 = load ptr, ptr %13, align 8
  %94 = getelementptr inbounds ptr, ptr %93, i64 0
  store ptr %92, ptr %94, align 8
  %95 = load i8, ptr %17, align 1, !range !10, !noundef !11
  %96 = trunc i8 %95 to i1
  %97 = zext i1 %96 to i64
  %98 = call i64 @llvm.expect.i64(i64 %97, i64 0)
  %99 = icmp ne i64 %98, 0
  br i1 %99, label %100, label %103

100:                                              ; preds = %91
  %101 = load ptr, ptr %13, align 8
  invoke void @PyMem_Free(ptr noundef %101)
          to label %102 unwind label %107

102:                                              ; preds = %100
  br label %103

103:                                              ; preds = %102, %91
  %104 = load ptr, ptr %16, align 8
  store ptr %104, ptr %5, align 8
  store i32 1, ptr %19, align 4
  br label %105

105:                                              ; preds = %103, %69
  call void @llvm.lifetime.end.p0(i64 1, ptr %17) #22
  call void @llvm.lifetime.end.p0(i64 8, ptr %16) #22
  call void @llvm.lifetime.end.p0(i64 8, ptr %15) #22
  call void @llvm.lifetime.end.p0(i64 40, ptr %14) #22
  call void @llvm.lifetime.end.p0(i64 8, ptr %13) #22
  call void @llvm.lifetime.end.p0(i64 8, ptr %12) #22
  call void @llvm.lifetime.end.p0(i64 8, ptr %11) #22
  call void @llvm.lifetime.end.p0(i64 8, ptr %10) #22
  %106 = load ptr, ptr %5, align 8
  ret ptr %106

107:                                              ; preds = %100, %72, %58, %51
  %108 = landingpad { ptr, i32 }
          catch ptr null
  %109 = extractvalue { ptr, i32 } %108, 0
  call void @__clang_call_terminate(ptr %109) #24
  unreachable
}