; Function Attrs: mustprogress nounwind uwtable
define internal noundef ptr @_ZN8nanobind6detailL26nb_bound_method_vectorcallEP7_objectPKS2_mS2_(ptr noundef readonly captures(none) %0, ptr noundef %1, i64 noundef %2, ptr noundef %3) #5 personality ptr @__gxx_personality_v0 {
  %5 = alloca [5 x ptr], align 16
  %6 = and i64 %2, 9223372036854775807
  call void @llvm.lifetime.start.p0(i64 40, ptr nonnull %5) #25
  %.not = icmp sgt i64 %2, -1
  br i1 %.not, label %10, label %7, !prof !11

7:                                                ; preds = %4
  %8 = getelementptr inbounds i8, ptr %1, i64 -8
  %9 = load ptr, ptr %8, align 8
  %.pre = add nuw i64 %6, 1
  br label %26

10:                                               ; preds = %4
  %11 = add nuw i64 %6, 1
  %.not39 = icmp eq ptr %3, null
  br i1 %.not39, label %16, label %12

12:                                               ; preds = %10
  %13 = getelementptr inbounds nuw i8, ptr %3, i64 16
  %14 = load i64, ptr %13, align 8
  %15 = add i64 %14, %11
  br label %16

16:                                               ; preds = %12, %10
  %.028 = phi i64 [ %15, %12 ], [ %11, %10 ]
  %17 = icmp ugt i64 %.028, 4
  %18 = shl i64 %.028, 3
  br i1 %17, label %19, label %.thread

19:                                               ; preds = %16
  %20 = invoke ptr @PyMem_Malloc(i64 noundef %18)
          to label %21 unwind label %37

21:                                               ; preds = %19
  %.not40 = icmp eq ptr %20, null
  br i1 %.not40, label %22, label %.thread

22:                                               ; preds = %21
  %23 = invoke ptr @PyErr_NoMemory()
          to label %36 unwind label %37

.thread:                                          ; preds = %16, %21
  %.134 = phi ptr [ %20, %21 ], [ %5, %16 ]
  %24 = getelementptr inbounds nuw i8, ptr %.134, i64 8
  %25 = add i64 %18, -8
  call void @llvm.memcpy.p0.p0.i64(ptr nonnull align 8 %24, ptr align 8 %1, i64 %25, i1 false)
  br label %26

26:                                               ; preds = %.thread, %7
  %.pre-phi = phi i64 [ %11, %.thread ], [ %.pre, %7 ]
  %.033 = phi ptr [ %.134, %.thread ], [ %8, %7 ]
  %.032 = phi ptr [ null, %.thread ], [ %9, %7 ]
  %.029 = phi i1 [ %17, %.thread ], [ false, %7 ]
  %27 = getelementptr inbounds nuw i8, ptr %0, i64 32
  %28 = load ptr, ptr %27, align 8
  store ptr %28, ptr %.033, align 8
  %29 = getelementptr inbounds nuw i8, ptr %0, i64 24
  %30 = load ptr, ptr %29, align 8
  %31 = getelementptr inbounds nuw i8, ptr %30, i64 24
  %32 = load ptr, ptr %31, align 8
  %33 = invoke noundef ptr %32(ptr noundef nonnull %30, ptr noundef nonnull %.033, i64 noundef %.pre-phi, ptr noundef %3)
          to label %34 unwind label %37

34:                                               ; preds = %26
  store ptr %.032, ptr %.033, align 8
  br i1 %.029, label %35, label %36, !prof !11

35:                                               ; preds = %34
  invoke void @PyMem_Free(ptr noundef nonnull %.033)
          to label %36 unwind label %37

36:                                               ; preds = %22, %34, %35
  %.131 = phi ptr [ %33, %35 ], [ %33, %34 ], [ %23, %22 ]
  call void @llvm.lifetime.end.p0(i64 40, ptr nonnull %5) #25
  ret ptr %.131

37:                                               ; preds = %35, %26, %22, %19
  %38 = landingpad { ptr, i32 }
          catch ptr null
  %39 = extractvalue { ptr, i32 } %38, 0
  call void @__clang_call_terminate(ptr %39) #26
  unreachable
}